target datalayout = "e-m:e-p270:32:32-p271:32:32-p272:64:64-i64:64-i128:128-f80:128-n8:16:32:64-S128"
target triple = "x86_64-pc-linux-gnu"

%struct.H5O_linfo_t = type { i8, i8, i64, i64, i64, i64, i64 }
%struct.H5O_loc_t = type { ptr, i64, i8 }

@H5G_init_g = external global i8, align 1
@H5_libterm_g = external global i8, align 1
@.str = private unnamed_addr constant [100 x i8] c"generated/home/dtcxzyw/WorkSpace/Projects/compilers/llvm-opt-benchmark/bench/hdf5/hdf5/src/H5Gobj.c\00", align 1
@H5E_SYM_g = external global i64, align 8
@H5E_CANTGET_g = external global i64, align 8
@H5E_BADVALUE_g = external global i64, align 8
@H5E_CANTINIT_g = external global i64, align 8
@H5E_FUNC_g = external global i64, align 8
@.str.18 = private unnamed_addr constant [32 x i8] c"interface initialization failed\00", align 1
@.str.19 = private unnamed_addr constant [34 x i8] c"can't check for link info message\00", align 1
@H5E_NOTFOUND_g = external global i64, align 8
@.str.35 = private unnamed_addr constant [46 x i8] c"creation order not tracked for links in group\00", align 1
@.str.38 = private unnamed_addr constant [33 x i8] c"no creation order index to query\00", align 1
@__func__.H5G_obj_get_name_by_idx = private unnamed_addr constant [24 x i8] c"H5G_obj_get_name_by_idx\00", align 1
@.str.44 = private unnamed_addr constant [18 x i8] c"can't locate name\00", align 1

; Function Attrs: nounwind uwtable
define i32 @H5G_obj_get_name_by_idx(ptr noundef %0, i32 noundef %1, i32 noundef %2, i64 noundef %3, ptr noundef %4, i64 noundef %5, ptr noundef %6) #0 {
  %8 = alloca ptr, align 8
  %9 = alloca i32, align 4
  %10 = alloca i32, align 4
  %11 = alloca i64, align 8
  %12 = alloca ptr, align 8
  %13 = alloca i64, align 8
  %14 = alloca ptr, align 8
  %15 = alloca %struct.H5O_linfo_t, align 8
  %16 = alloca i32, align 4
  %17 = alloca i32, align 4
  %18 = alloca i64, align 8
  %19 = alloca i8, align 1
  store ptr %0, ptr %8, align 8, !tbaa !10
  store i32 %1, ptr %9, align 4, !tbaa !12
  store i32 %2, ptr %10, align 4, !tbaa !12
  store i64 %3, ptr %11, align 8, !tbaa !23
  store ptr %4, ptr %12, align 8, !tbaa !96
  store i64 %5, ptr %13, align 8, !tbaa !23
  store ptr %6, ptr %14, align 8, !tbaa !74
  call void @llvm.lifetime.start.p0(i64 48, ptr %15) #6
  call void @llvm.lifetime.start.p0(i64 4, ptr %16) #6
  call void @llvm.lifetime.start.p0(i64 4, ptr %17) #6
  store i32 0, ptr %17, align 4, !tbaa !12
  call void @llvm.lifetime.start.p0(i64 8, ptr %18) #6
  store i64 -1, ptr %18, align 8, !tbaa !23
  call void @llvm.lifetime.start.p0(i64 1, ptr %19) #6
  store i8 0, ptr %19, align 1, !tbaa !14
  %20 = load ptr, ptr %8, align 8, !tbaa !10
  %21 = getelementptr inbounds nuw %struct.H5O_loc_t, ptr %20, i32 0, i32 1
  %22 = load i64, ptr %21, align 8, !tbaa !56
  call void @H5AC_tag(i64 noundef %22, ptr noundef %18)
  %23 = load i8, ptr @H5G_init_g, align 1, !tbaa !14, !range !16, !noundef !17
  %24 = trunc i8 %23 to i1
  br i1 %24, label %29, label %25

25:                                               ; preds = %7
  %26 = load i8, ptr @H5_libterm_g, align 1, !tbaa !14, !range !16, !noundef !17
  %27 = trunc i8 %26 to i1
  %28 = xor i1 %27, true
  br label %29

29:                                               ; preds = %25, %7
  %30 = phi i1 [ false, %7 ], [ %28, %25 ]
  %31 = xor i1 %30, true
  %32 = xor i1 %31, true
  %33 = zext i1 %32 to i32
  %34 = sext i32 %33 to i64
  %35 = call i64 @llvm.expect.i64(i64 %34, i64 0)
  %36 = icmp ne i64 %35, 0
  br i1 %36, label %37, label %60

37:                                               ; preds = %29
  store i8 1, ptr @H5G_init_g, align 1, !tbaa !14
  %38 = call i32 @H5G__init_package()
  %39 = icmp slt i32 %38, 0
  br i1 %39, label %40, label %59

40:                                               ; preds = %37
  store i8 0, ptr @H5G_init_g, align 1, !tbaa !14
  br label %41

41:                                               ; preds = %40
  br label %42

42:                                               ; preds = %41
  br label %43

43:                                               ; preds = %42
  %44 = load i64, ptr @H5E_FUNC_g, align 8, !tbaa !23
  %45 = load i64, ptr @H5E_CANTINIT_g, align 8, !tbaa !23
  %46 = call i32 (ptr, ptr, i32, i64, i64, ptr, ...) @H5E_printf_stack(ptr noundef @.str, ptr noundef @__func__.H5G_obj_get_name_by_idx, i32 noundef 764, i64 noundef %44, i64 noundef %45, ptr noundef @.str.18)
  br label %47

47:                                               ; preds = %43
  br label %48

48:                                               ; preds = %47
  store i8 1, ptr %19, align 1, !tbaa !14
  %49 = load i8, ptr %19, align 1, !tbaa !14, !range !16, !noundef !17
  %50 = trunc i8 %49 to i1
  %51 = zext i1 %50 to i8
  store i8 %51, ptr %19, align 1, !tbaa !14
  br label %52

52:                                               ; preds = %48
  br label %53

53:                                               ; preds = %52
  br label %54

54:                                               ; preds = %53
  store i32 -1, ptr %17, align 4, !tbaa !12
  br label %247

55:                                               ; No predecessors!
  br label %56

56:                                               ; preds = %55
  br label %57

57:                                               ; preds = %56
  br label %58

58:                                               ; preds = %57
  br label %59

59:                                               ; preds = %58, %37
  br label %60

60:                                               ; preds = %59, %29
  %61 = load i8, ptr @H5G_init_g, align 1, !tbaa !14, !range !16, !noundef !17
  %62 = trunc i8 %61 to i1
  br i1 %62, label %67, label %63

63:                                               ; preds = %60
  %64 = load i8, ptr @H5_libterm_g, align 1, !tbaa !14, !range !16, !noundef !17
  %65 = trunc i8 %64 to i1
  %66 = xor i1 %65, true
  br label %67

67:                                               ; preds = %63, %60
  %68 = phi i1 [ true, %60 ], [ %66, %63 ]
  %69 = xor i1 %68, true
  %70 = xor i1 %69, true
  %71 = zext i1 %70 to i32
  %72 = sext i32 %71 to i64
  %73 = call i64 @llvm.expect.i64(i64 %72, i64 1)
  %74 = icmp ne i64 %73, 0
  br i1 %74, label %75, label %248

75:                                               ; preds = %67
  %76 = load ptr, ptr %8, align 8, !tbaa !10
  %77 = call i32 @H5G__obj_get_linfo(ptr noundef %76, ptr noundef %15)
  store i32 %77, ptr %16, align 4, !tbaa !12
  %78 = icmp slt i32 %77, 0
  br i1 %78, label %79, label %98

79:                                               ; preds = %75
  br label %80

80:                                               ; preds = %79
  br label %81

81:                                               ; preds = %80
  br label %82

82:                                               ; preds = %81
  %83 = load i64, ptr @H5E_SYM_g, align 8, !tbaa !23
  %84 = load i64, ptr @H5E_CANTGET_g, align 8, !tbaa !23
  %85 = call i32 (ptr, ptr, i32, i64, i64, ptr, ...) @H5E_printf_stack(ptr noundef @.str, ptr noundef @__func__.H5G_obj_get_name_by_idx, i32 noundef 771, i64 noundef %83, i64 noundef %84, ptr noundef @.str.19)
  br label %86

86:                                               ; preds = %82
  br label %87

87:                                               ; preds = %86
  store i8 1, ptr %19, align 1, !tbaa !14
  %88 = load i8, ptr %19, align 1, !tbaa !14, !range !16, !noundef !17
  %89 = trunc i8 %88 to i1
  %90 = zext i1 %89 to i8
  store i8 %90, ptr %19, align 1, !tbaa !14
  br label %91

91:                                               ; preds = %87
  br label %92

92:                                               ; preds = %91
  br label %93

93:                                               ; preds = %92
  store i32 -1, ptr %17, align 4, !tbaa !12
  br label %247

94:                                               ; No predecessors!
  br label %95

95:                                               ; preds = %94
  br label %96

96:                                               ; preds = %95
  br label %97

97:                                               ; preds = %96
  br label %98

98:                                               ; preds = %97, %75
  %99 = load i32, ptr %16, align 4, !tbaa !12
  %100 = icmp ne i32 %99, 0
  br i1 %100, label %101, label %195

101:                                              ; preds = %98
  %102 = load i32, ptr %9, align 4, !tbaa !12
  %103 = icmp eq i32 %102, 1
  br i1 %103, label %104, label %128

104:                                              ; preds = %101
  %105 = getelementptr inbounds nuw %struct.H5O_linfo_t, ptr %15, i32 0, i32 0
  %106 = load i8, ptr %105, align 8, !tbaa !30, !range !16, !noundef !17
  %107 = trunc i8 %106 to i1
  br i1 %107, label %127, label %108

108:                                              ; preds = %104
  br label %109

109:                                              ; preds = %108
  br label %110

110:                                              ; preds = %109
  br label %111

111:                                              ; preds = %110
  %112 = load i64, ptr @H5E_SYM_g, align 8, !tbaa !23
  %113 = load i64, ptr @H5E_NOTFOUND_g, align 8, !tbaa !23
  %114 = call i32 (ptr, ptr, i32, i64, i64, ptr, ...) @H5E_printf_stack(ptr noundef @.str, ptr noundef @__func__.H5G_obj_get_name_by_idx, i32 noundef 777, i64 noundef %112, i64 noundef %113, ptr noundef @.str.35)
  br label %115

115:                                              ; preds = %111
  br label %116

116:                                              ; preds = %115
  store i8 1, ptr %19, align 1, !tbaa !14
  %117 = load i8, ptr %19, align 1, !tbaa !14, !range !16, !noundef !17
  %118 = trunc i8 %117 to i1
  %119 = zext i1 %118 to i8
  store i8 %119, ptr %19, align 1, !tbaa !14
  br label %120

120:                                              ; preds = %116
  br label %121

121:                                              ; preds = %120
  br label %122

122:                                              ; preds = %121
  store i32 -1, ptr %17, align 4, !tbaa !12
  br label %247

123:                                              ; No predecessors!
  br label %124

124:                                              ; preds = %123
  br label %125

125:                                              ; preds = %124
  br label %126

126:                                              ; preds = %125
  br label %127

127:                                              ; preds = %126, %104
  br label %128

128:                                              ; preds = %127, %101
  %129 = getelementptr inbounds nuw %struct.H5O_linfo_t, ptr %15, i32 0, i32 5
  %130 = load i64, ptr %129, align 8, !tbaa !59
  %131 = icmp ne i64 %130, -1
  br i1 %131, label %132, label %164

132:                                              ; preds = %128
  %133 = load ptr, ptr %8, align 8, !tbaa !10
  %134 = getelementptr inbounds nuw %struct.H5O_loc_t, ptr %133, i32 0, i32 0
  %135 = load ptr, ptr %134, align 8, !tbaa !60
  %136 = load i32, ptr %9, align 4, !tbaa !12
  %137 = load i32, ptr %10, align 4, !tbaa !12
  %138 = load i64, ptr %11, align 8, !tbaa !23
  %139 = load ptr, ptr %12, align 8, !tbaa !96
  %140 = load i64, ptr %13, align 8, !tbaa !23
  %141 = load ptr, ptr %14, align 8, !tbaa !74
  %142 = call i32 @H5G__dense_get_name_by_idx(ptr noundef %135, ptr noundef %15, i32 noundef %136, i32 noundef %137, i64 noundef %138, ptr noundef %139, i64 noundef %140, ptr noundef %141)
  %143 = icmp slt i32 %142, 0
  br i1 %143, label %144, label %163

144:                                              ; preds = %132
  br label %145

145:                                              ; preds = %144
  br label %146

146:                                              ; preds = %145
  br label %147

147:                                              ; preds = %146
  %148 = load i64, ptr @H5E_SYM_g, align 8, !tbaa !23
  %149 = load i64, ptr @H5E_NOTFOUND_g, align 8, !tbaa !23
  %150 = call i32 (ptr, ptr, i32, i64, i64, ptr, ...) @H5E_printf_stack(ptr noundef @.str, ptr noundef @__func__.H5G_obj_get_name_by_idx, i32 noundef 784, i64 noundef %148, i64 noundef %149, ptr noundef @.str.44)
  br label %151

151:                                              ; preds = %147
  br label %152

152:                                              ; preds = %151
  store i8 1, ptr %19, align 1, !tbaa !14
  %153 = load i8, ptr %19, align 1, !tbaa !14, !range !16, !noundef !17
  %154 = trunc i8 %153 to i1
  %155 = zext i1 %154 to i8
  store i8 %155, ptr %19, align 1, !tbaa !14
  br label %156

156:                                              ; preds = %152
  br label %157

157:                                              ; preds = %156
  br label %158

158:                                              ; preds = %157
  store i32 -1, ptr %17, align 4, !tbaa !12
  br label %247

159:                                              ; No predecessors!
  br label %160

160:                                              ; preds = %159
  br label %161

161:                                              ; preds = %160
  br label %162

162:                                              ; preds = %161
  br label %163

163:                                              ; preds = %162, %132
  br label %194

164:                                              ; preds = %128
  %165 = load ptr, ptr %8, align 8, !tbaa !10
  %166 = load i32, ptr %9, align 4, !tbaa !12
  %167 = load i32, ptr %10, align 4, !tbaa !12
  %168 = load i64, ptr %11, align 8, !tbaa !23
  %169 = load ptr, ptr %12, align 8, !tbaa !96
  %170 = load i64, ptr %13, align 8, !tbaa !23
  %171 = load ptr, ptr %14, align 8, !tbaa !74
  %172 = call i32 @H5G__compact_get_name_by_idx(ptr noundef %165, ptr noundef %15, i32 noundef %166, i32 noundef %167, i64 noundef %168, ptr noundef %169, i64 noundef %170, ptr noundef %171)
  %173 = icmp slt i32 %172, 0
  br i1 %173, label %174, label %193

174:                                              ; preds = %164
  br label %175

175:                                              ; preds = %174
  br label %176

176:                                              ; preds = %175
  br label %177

177:                                              ; preds = %176
  %178 = load i64, ptr @H5E_SYM_g, align 8, !tbaa !23
  %179 = load i64, ptr @H5E_NOTFOUND_g, align 8, !tbaa !23
  %180 = call i32 (ptr, ptr, i32, i64, i64, ptr, ...) @H5E_printf_stack(ptr noundef @.str, ptr noundef @__func__.H5G_obj_get_name_by_idx, i32 noundef 789, i64 noundef %178, i64 noundef %179, ptr noundef @.str.44)
  br label %181

181:                                              ; preds = %177
  br label %182

182:                                              ; preds = %181
  store i8 1, ptr %19, align 1, !tbaa !14
  %183 = load i8, ptr %19, align 1, !tbaa !14, !range !16, !noundef !17
  %184 = trunc i8 %183 to i1
  %185 = zext i1 %184 to i8
  store i8 %185, ptr %19, align 1, !tbaa !14
  br label %186

186:                                              ; preds = %182
  br label %187

187:                                              ; preds = %186
  br label %188

188:                                              ; preds = %187
  store i32 -1, ptr %17, align 4, !tbaa !12
  br label %247

189:                                              ; No predecessors!
  br label %190

190:                                              ; preds = %189
  br label %191

191:                                              ; preds = %190
  br label %192

192:                                              ; preds = %191
  br label %193

193:                                              ; preds = %192, %164
  br label %194

194:                                              ; preds = %193, %163
  br label %246

195:                                              ; preds = %98
  %196 = load i32, ptr %9, align 4, !tbaa !12
  %197 = icmp ne i32 %196, 0
  br i1 %197, label %198, label %217

198:                                              ; preds = %195
  br label %199

199:                                              ; preds = %198
  br label %200

200:                                              ; preds = %199
  br label %201

201:                                              ; preds = %200
  %202 = load i64, ptr @H5E_SYM_g, align 8, !tbaa !23
  %203 = load i64, ptr @H5E_BADVALUE_g, align 8, !tbaa !23
  %204 = call i32 (ptr, ptr, i32, i64, i64, ptr, ...) @H5E_printf_stack(ptr noundef @.str, ptr noundef @__func__.H5G_obj_get_name_by_idx, i32 noundef 795, i64 noundef %202, i64 noundef %203, ptr noundef @.str.38)
  br label %205

205:                                              ; preds = %201
  br label %206

206:                                              ; preds = %205
  store i8 1, ptr %19, align 1, !tbaa !14
  %207 = load i8, ptr %19, align 1, !tbaa !14, !range !16, !noundef !17
  %208 = trunc i8 %207 to i1
  %209 = zext i1 %208 to i8
  store i8 %209, ptr %19, align 1, !tbaa !14
  br label %210

210:                                              ; preds = %206
  br label %211

211:                                              ; preds = %210
  br label %212

212:                                              ; preds = %211
  store i32 -1, ptr %17, align 4, !tbaa !12
  br label %247

213:                                              ; No predecessors!
  br label %214

214:                                              ; preds = %213
  br label %215

215:                                              ; preds = %214
  br label %216

216:                                              ; preds = %215
  br label %217

217:                                              ; preds = %216, %195
  %218 = load ptr, ptr %8, align 8, !tbaa !10
  %219 = load i32, ptr %10, align 4, !tbaa !12
  %220 = load i64, ptr %11, align 8, !tbaa !23
  %221 = load ptr, ptr %12, align 8, !tbaa !96
  %222 = load i64, ptr %13, align 8, !tbaa !23
  %223 = load ptr, ptr %14, align 8, !tbaa !74
  %224 = call i32 @H5G__stab_get_name_by_idx(ptr noundef %218, i32 noundef %219, i64 noundef %220, ptr noundef %221, i64 noundef %222, ptr noundef %223)
  %225 = icmp slt i32 %224, 0
  br i1 %225, label %226, label %245

226:                                              ; preds = %217
  br label %227

227:                                              ; preds = %226
  br label %228

228:                                              ; preds = %227
  br label %229

229:                                              ; preds = %228
  %230 = load i64, ptr @H5E_SYM_g, align 8, !tbaa !23
  %231 = load i64, ptr @H5E_NOTFOUND_g, align 8, !tbaa !23
  %232 = call i32 (ptr, ptr, i32, i64, i64, ptr, ...) @H5E_printf_stack(ptr noundef @.str, ptr noundef @__func__.H5G_obj_get_name_by_idx, i32 noundef 799, i64 noundef %230, i64 noundef %231, ptr noundef @.str.44)
  br label %233

233:                                              ; preds = %229
  br label %234

234:                                              ; preds = %233
  store i8 1, ptr %19, align 1, !tbaa !14
  %235 = load i8, ptr %19, align 1, !tbaa !14, !range !16, !noundef !17
  %236 = trunc i8 %235 to i1
  %237 = zext i1 %236 to i8
  store i8 %237, ptr %19, align 1, !tbaa !14
  br label %238

238:                                              ; preds = %234
  br label %239

239:                                              ; preds = %238
  br label %240

240:                                              ; preds = %239
  store i32 -1, ptr %17, align 4, !tbaa !12
  br label %247

241:                                              ; No predecessors!
  br label %242

242:                                              ; preds = %241
  br label %243

243:                                              ; preds = %242
  br label %244

244:                                              ; preds = %243
  br label %245

245:                                              ; preds = %244, %217
  br label %246

246:                                              ; preds = %245, %194
  br label %247

247:                                              ; preds = %246, %240, %212, %188, %158, %122, %93, %54
  br label %248

248:                                              ; preds = %247, %67
  %249 = load i64, ptr %18, align 8, !tbaa !23
  call void @H5AC_tag(i64 noundef %249, ptr noundef null)
  %250 = load i32, ptr %17, align 4, !tbaa !12
  call void @llvm.lifetime.end.p0(i64 1, ptr %19) #6
  call void @llvm.lifetime.end.p0(i64 8, ptr %18) #6
  call void @llvm.lifetime.end.p0(i64 4, ptr %17) #6
  call void @llvm.lifetime.end.p0(i64 4, ptr %16) #6
  call void @llvm.lifetime.end.p0(i64 48, ptr %15) #6
  ret i32 %250
}