; Function Attrs: nounwind uwtable
define range(i32 -1, 1) i32 @H5G_obj_get_name_by_idx(ptr noundef %0, i32 noundef %1, i32 noundef %2, i64 noundef %3, ptr noundef %4, i64 noundef %5, ptr noundef %6) local_unnamed_addr #0 {
  %8 = alloca %struct.H5O_linfo_t, align 8
  %9 = alloca i64, align 8
  call void @llvm.lifetime.start.p0(i64 48, ptr nonnull %8) #5
  call void @llvm.lifetime.start.p0(i64 8, ptr nonnull %9) #5
  store i64 -1, ptr %9, align 8, !tbaa !14
  %10 = getelementptr inbounds nuw i8, ptr %0, i64 8
  %11 = load i64, ptr %10, align 8, !tbaa !41
  call void @H5AC_tag(i64 noundef %11, ptr noundef nonnull %9) #5
  %12 = load i8, ptr @H5G_init_g, align 1, !tbaa !3, !range !7, !noundef !8
  %13 = trunc nuw i8 %12 to i1
  %14 = load i8, ptr @H5_libterm_g, align 1, !range !7
  %15 = trunc nuw i8 %14 to i1
  %16 = select i1 %13, i1 true, i1 %15
  br i1 %16, label %24, label %17, !prof !9

17:                                               ; preds = %7
  store i8 1, ptr @H5G_init_g, align 1, !tbaa !3
  %18 = call i32 @H5G__init_package() #5
  %19 = icmp slt i32 %18, 0
  br i1 %19, label %20, label %._crit_edge

._crit_edge:                                      ; preds = %17
  %.pre = load i8, ptr @H5G_init_g, align 1, !tbaa !3, !range !7
  %.pre35 = load i8, ptr @H5_libterm_g, align 1, !range !7
  %.pre36 = trunc nuw i8 %.pre to i1
  %.pre37 = trunc nuw i8 %.pre35 to i1
  br label %24

20:                                               ; preds = %17
  store i8 0, ptr @H5G_init_g, align 1, !tbaa !3
  %21 = load i64, ptr @H5E_FUNC_g, align 8, !tbaa !14
  %22 = load i64, ptr @H5E_CANTINIT_g, align 8, !tbaa !14
  %23 = call i32 (ptr, ptr, i32, i64, i64, ptr, ...) @H5E_printf_stack(ptr noundef nonnull @.str, ptr noundef nonnull @__func__.H5G_obj_get_name_by_idx, i32 noundef 764, i64 noundef %21, i64 noundef %22, ptr noundef nonnull @.str.18) #5
  br label %74

24:                                               ; preds = %._crit_edge, %7
  %.pre-phi38 = phi i1 [ %.pre37, %._crit_edge ], [ %15, %7 ]
  %.pre-phi = phi i1 [ %.pre36, %._crit_edge ], [ %13, %7 ]
  %25 = xor i1 %.pre-phi38, true
  %26 = select i1 %.pre-phi, i1 true, i1 %25
  br i1 %26, label %27, label %74, !prof !9

27:                                               ; preds = %24
  %28 = call i32 @H5G__obj_get_linfo(ptr noundef nonnull %0, ptr noundef nonnull %8)
  %29 = icmp slt i32 %28, 0
  br i1 %29, label %30, label %34

30:                                               ; preds = %27
  %31 = load i64, ptr @H5E_SYM_g, align 8, !tbaa !14
  %32 = load i64, ptr @H5E_CANTGET_g, align 8, !tbaa !14
  %33 = call i32 (ptr, ptr, i32, i64, i64, ptr, ...) @H5E_printf_stack(ptr noundef nonnull @.str, ptr noundef nonnull @__func__.H5G_obj_get_name_by_idx, i32 noundef 771, i64 noundef %31, i64 noundef %32, ptr noundef nonnull @.str.19) #5
  br label %74

34:                                               ; preds = %27
  %.not = icmp eq i32 %28, 0
  br i1 %.not, label %62, label %35

35:                                               ; preds = %34
  %36 = icmp eq i32 %1, 1
  br i1 %36, label %37, label %44

37:                                               ; preds = %35
  %38 = load i8, ptr %8, align 8, !tbaa !15, !range !7, !noundef !8
  %39 = trunc nuw i8 %38 to i1
  br i1 %39, label %44, label %40

40:                                               ; preds = %37
  %41 = load i64, ptr @H5E_SYM_g, align 8, !tbaa !14
  %42 = load i64, ptr @H5E_NOTFOUND_g, align 8, !tbaa !14
  %43 = call i32 (ptr, ptr, i32, i64, i64, ptr, ...) @H5E_printf_stack(ptr noundef nonnull @.str, ptr noundef nonnull @__func__.H5G_obj_get_name_by_idx, i32 noundef 777, i64 noundef %41, i64 noundef %42, ptr noundef nonnull @.str.35) #5
  br label %74

44:                                               ; preds = %37, %35
  %45 = getelementptr inbounds nuw i8, ptr %8, i64 32
  %46 = load i64, ptr %45, align 8, !tbaa !44
  %.not34 = icmp eq i64 %46, -1
  br i1 %.not34, label %55, label %47

47:                                               ; preds = %44
  %48 = load ptr, ptr %0, align 8, !tbaa !45
  %49 = call i32 @H5G__dense_get_name_by_idx(ptr noundef %48, ptr noundef nonnull %8, i32 noundef %1, i32 noundef %2, i64 noundef %3, ptr noundef %4, i64 noundef %5, ptr noundef %6) #5
  %50 = icmp slt i32 %49, 0
  br i1 %50, label %51, label %74

51:                                               ; preds = %47
  %52 = load i64, ptr @H5E_SYM_g, align 8, !tbaa !14
  %53 = load i64, ptr @H5E_NOTFOUND_g, align 8, !tbaa !14
  %54 = call i32 (ptr, ptr, i32, i64, i64, ptr, ...) @H5E_printf_stack(ptr noundef nonnull @.str, ptr noundef nonnull @__func__.H5G_obj_get_name_by_idx, i32 noundef 784, i64 noundef %52, i64 noundef %53, ptr noundef nonnull @.str.44) #5
  br label %74

55:                                               ; preds = %44
  %56 = call i32 @H5G__compact_get_name_by_idx(ptr noundef nonnull %0, ptr noundef nonnull %8, i32 noundef %1, i32 noundef %2, i64 noundef %3, ptr noundef %4, i64 noundef %5, ptr noundef %6) #5
  %57 = icmp slt i32 %56, 0
  br i1 %57, label %58, label %74

58:                                               ; preds = %55
  %59 = load i64, ptr @H5E_SYM_g, align 8, !tbaa !14
  %60 = load i64, ptr @H5E_NOTFOUND_g, align 8, !tbaa !14
  %61 = call i32 (ptr, ptr, i32, i64, i64, ptr, ...) @H5E_printf_stack(ptr noundef nonnull @.str, ptr noundef nonnull @__func__.H5G_obj_get_name_by_idx, i32 noundef 789, i64 noundef %59, i64 noundef %60, ptr noundef nonnull @.str.44) #5
  br label %74

62:                                               ; preds = %34
  %.not33 = icmp eq i32 %1, 0
  br i1 %.not33, label %67, label %63

63:                                               ; preds = %62
  %64 = load i64, ptr @H5E_SYM_g, align 8, !tbaa !14
  %65 = load i64, ptr @H5E_BADVALUE_g, align 8, !tbaa !14
  %66 = call i32 (ptr, ptr, i32, i64, i64, ptr, ...) @H5E_printf_stack(ptr noundef nonnull @.str, ptr noundef nonnull @__func__.H5G_obj_get_name_by_idx, i32 noundef 795, i64 noundef %64, i64 noundef %65, ptr noundef nonnull @.str.38) #5
  br label %74

67:                                               ; preds = %62
  %68 = call i32 @H5G__stab_get_name_by_idx(ptr noundef nonnull %0, i32 noundef %2, i64 noundef %3, ptr noundef %4, i64 noundef %5, ptr noundef %6) #5
  %69 = icmp slt i32 %68, 0
  br i1 %69, label %70, label %74

70:                                               ; preds = %67
  %71 = load i64, ptr @H5E_SYM_g, align 8, !tbaa !14
  %72 = load i64, ptr @H5E_NOTFOUND_g, align 8, !tbaa !14
  %73 = call i32 (ptr, ptr, i32, i64, i64, ptr, ...) @H5E_printf_stack(ptr noundef nonnull @.str, ptr noundef nonnull @__func__.H5G_obj_get_name_by_idx, i32 noundef 799, i64 noundef %71, i64 noundef %72, ptr noundef nonnull @.str.44) #5
  br label %74

74:                                               ; preds = %20, %30, %40, %51, %58, %63, %70, %67, %47, %55, %24
  %.0 = phi i32 [ -1, %20 ], [ -1, %30 ], [ -1, %51 ], [ 0, %47 ], [ -1, %58 ], [ 0, %55 ], [ -1, %40 ], [ -1, %63 ], [ -1, %70 ], [ 0, %67 ], [ 0, %24 ]
  %75 = load i64, ptr %9, align 8, !tbaa !14
  call void @H5AC_tag(i64 noundef %75, ptr noundef null) #5
  call void @llvm.lifetime.end.p0(i64 8, ptr nonnull %9) #5
  call void @llvm.lifetime.end.p0(i64 48, ptr nonnull %8) #5
  ret i32 %.0
}